target datalayout = "e-m:e-p270:32:32-p271:32:32-p272:64:64-i64:64-i128:128-f80:128-n8:16:32:64-S128"
target triple = "x86_64-pc-linux-gnu"

%struct.AVFormatContext = type { ptr, ptr, ptr, ptr, ptr, i32, i32, ptr, i32, ptr, i32, ptr, ptr, i64, i64, i64, i32, i32, i32, i64, i64, ptr, i32, i32, ptr, i32, i32, i32, i32, ptr, i64, i32, i32, %struct.AVIOInterruptCB, i32, i32, i32, i32, i64, i32, i32, i32, i32, i32, i32, i32, i32, i32, i32, i32, i32, i64, i32, i32, i32, i32, i32, ptr, ptr, ptr, ptr, i32, ptr, ptr, ptr, ptr, i32, ptr, ptr, i64, ptr, ptr, ptr, i64 }
%struct.AVIOInterruptCB = type { ptr, ptr }
%struct.VividasDemuxContext = type { i32, ptr, i32, i32, i64, i32, i32, ptr, ptr, i32, ptr, i32, i32, i64, [100 x %struct.VIV_AudioSubpacket] }
%struct.VIV_AudioSubpacket = type { i32, i32 }
%struct.VIV_SB_block = type { i32, i32, i64, i64 }
%struct.AVRational = type { i32, i32 }
%struct.AVPacket = type { ptr, i64, i64, ptr, i32, i32, i32, ptr, i32, i64, i64, ptr, ptr, %struct.AVRational }
%struct.AVStream = type { ptr, i32, i32, ptr, ptr, %struct.AVRational, i64, i64, i64, i32, i32, %struct.AVRational, ptr, %struct.AVRational, %struct.AVPacket, i32, %struct.AVRational, i32 }
%struct.AVCodecParameters = type { i32, i32, i32, ptr, i32, ptr, i32, i32, i64, i32, i32, i32, i32, i32, i32, %struct.AVRational, %struct.AVRational, i32, i32, i32, i32, i32, i32, i32, %struct.AVChannelLayout, i32, i32, i32, i32, i32, i32 }
%struct.AVChannelLayout = type { i32, i32, %union.anon, ptr }
%union.anon = type { i64 }

; Function Attrs: alwaysinline nounwind uwtable
define internal i64 @av_inv_q(i64 %0) #4 {
  %2 = alloca %struct.AVRational, align 4
  %3 = alloca %struct.AVRational, align 4
  store i64 %0, ptr %3, align 4
  %4 = getelementptr inbounds nuw %struct.AVRational, ptr %2, i32 0, i32 0
  %5 = getelementptr inbounds nuw %struct.AVRational, ptr %3, i32 0, i32 1
  %6 = load i32, ptr %5, align 4, !tbaa !115
  store i32 %6, ptr %4, align 4, !tbaa !114
  %7 = getelementptr inbounds nuw %struct.AVRational, ptr %2, i32 0, i32 1
  %8 = getelementptr inbounds nuw %struct.AVRational, ptr %3, i32 0, i32 0
  %9 = load i32, ptr %8, align 4, !tbaa !114
  store i32 %9, ptr %7, align 4, !tbaa !115
  %10 = load i64, ptr %2, align 4
  ret i64 %10
}

; Function Attrs: inlinehint nounwind uwtable
define internal i64 @av_make_q(i32 noundef %0, i32 noundef %1) #8 {
  %3 = alloca %struct.AVRational, align 4
  %4 = alloca i32, align 4
  %5 = alloca i32, align 4
  store i32 %0, ptr %4, align 4, !tbaa !34
  store i32 %1, ptr %5, align 4, !tbaa !34
  %6 = getelementptr inbounds nuw %struct.AVRational, ptr %3, i32 0, i32 0
  %7 = load i32, ptr %4, align 4, !tbaa !34
  store i32 %7, ptr %6, align 4, !tbaa !114
  %8 = getelementptr inbounds nuw %struct.AVRational, ptr %3, i32 0, i32 1
  %9 = load i32, ptr %5, align 4, !tbaa !34
  store i32 %9, ptr %8, align 4, !tbaa !115
  %10 = load i64, ptr %3, align 4
  ret i64 %10
}

; Function Attrs: nounwind uwtable
define internal i32 @viv_read_seek(ptr noundef %0, i32 noundef %1, i64 noundef %2, i32 noundef %3) #0 {
  %5 = alloca i32, align 4
  %6 = alloca ptr, align 8
  %7 = alloca i32, align 4
  %8 = alloca i64, align 8
  %9 = alloca i32, align 4
  %10 = alloca ptr, align 8
  %11 = alloca i64, align 8
  %12 = alloca i32, align 4
  %13 = alloca i32, align 4
  %14 = alloca ptr, align 8
  %15 = alloca %struct.AVRational, align 4
  %16 = alloca %struct.AVRational, align 4
  store ptr %0, ptr %6, align 8, !tbaa !13
  store i32 %1, ptr %7, align 4, !tbaa !34
  store i64 %2, ptr %8, align 8, !tbaa !36
  store i32 %3, ptr %9, align 4, !tbaa !34
  call void @llvm.lifetime.start.p0(i64 8, ptr %10) #10
  %17 = load ptr, ptr %6, align 8, !tbaa !13
  %18 = getelementptr inbounds nuw %struct.AVFormatContext, ptr %17, i32 0, i32 3
  %19 = load ptr, ptr %18, align 8, !tbaa !15
  store ptr %19, ptr %10, align 8, !tbaa !30
  call void @llvm.lifetime.start.p0(i64 8, ptr %11) #10
  %20 = load i32, ptr %7, align 4, !tbaa !34
  %21 = icmp eq i32 %20, 0
  br i1 %21, label %22, label %24

22:                                               ; preds = %4
  %23 = load i64, ptr %8, align 8, !tbaa !36
  store i64 %23, ptr %11, align 8, !tbaa !36
  br label %43

24:                                               ; preds = %4
  %25 = load i64, ptr %8, align 8, !tbaa !36
  %26 = load ptr, ptr %6, align 8, !tbaa !13
  %27 = getelementptr inbounds nuw %struct.AVFormatContext, ptr %26, i32 0, i32 7
  %28 = load ptr, ptr %27, align 8, !tbaa !61
  %29 = getelementptr inbounds ptr, ptr %28, i64 0
  %30 = load ptr, ptr %29, align 8, !tbaa !62
  %31 = getelementptr inbounds nuw %struct.AVStream, ptr %30, i32 0, i32 5
  %32 = load ptr, ptr %6, align 8, !tbaa !13
  %33 = getelementptr inbounds nuw %struct.AVFormatContext, ptr %32, i32 0, i32 7
  %34 = load ptr, ptr %33, align 8, !tbaa !61
  %35 = load i32, ptr %7, align 4, !tbaa !34
  %36 = sext i32 %35 to i64
  %37 = getelementptr inbounds ptr, ptr %34, i64 %36
  %38 = load ptr, ptr %37, align 8, !tbaa !62
  %39 = getelementptr inbounds nuw %struct.AVStream, ptr %38, i32 0, i32 5
  %40 = load i64, ptr %31, align 8
  %41 = load i64, ptr %39, align 8
  %42 = call i64 @av_rescale_q(i64 noundef %25, i64 %40, i64 %41) #11
  store i64 %42, ptr %11, align 8, !tbaa !36
  br label %43

43:                                               ; preds = %24, %22
  call void @llvm.lifetime.start.p0(i64 4, ptr %12) #10
  store i32 0, ptr %12, align 4, !tbaa !34
  br label %44

44:                                               ; preds = %158, %43
  %45 = load i32, ptr %12, align 4, !tbaa !34
  %46 = load ptr, ptr %10, align 8, !tbaa !30
  %47 = getelementptr inbounds nuw %struct.VividasDemuxContext, ptr %46, i32 0, i32 0
  %48 = load i32, ptr %47, align 8, !tbaa !42
  %49 = icmp slt i32 %45, %48
  br i1 %49, label %51, label %50

50:                                               ; preds = %44
  store i32 2, ptr %13, align 4
  br label %161

51:                                               ; preds = %44
  %52 = load i64, ptr %11, align 8, !tbaa !36
  %53 = load ptr, ptr %10, align 8, !tbaa !30
  %54 = getelementptr inbounds nuw %struct.VividasDemuxContext, ptr %53, i32 0, i32 1
  %55 = load ptr, ptr %54, align 8, !tbaa !44
  %56 = load i32, ptr %12, align 4, !tbaa !34
  %57 = sext i32 %56 to i64
  %58 = getelementptr inbounds %struct.VIV_SB_block, ptr %55, i64 %57
  %59 = getelementptr inbounds nuw %struct.VIV_SB_block, ptr %58, i32 0, i32 3
  %60 = load i64, ptr %59, align 8, !tbaa !82
  %61 = icmp sge i64 %52, %60
  br i1 %61, label %62, label %157

62:                                               ; preds = %51
  %63 = load i64, ptr %11, align 8, !tbaa !36
  %64 = load ptr, ptr %10, align 8, !tbaa !30
  %65 = getelementptr inbounds nuw %struct.VividasDemuxContext, ptr %64, i32 0, i32 1
  %66 = load ptr, ptr %65, align 8, !tbaa !44
  %67 = load i32, ptr %12, align 4, !tbaa !34
  %68 = sext i32 %67 to i64
  %69 = getelementptr inbounds %struct.VIV_SB_block, ptr %66, i64 %68
  %70 = getelementptr inbounds nuw %struct.VIV_SB_block, ptr %69, i32 0, i32 3
  %71 = load i64, ptr %70, align 8, !tbaa !82
  %72 = load ptr, ptr %10, align 8, !tbaa !30
  %73 = getelementptr inbounds nuw %struct.VividasDemuxContext, ptr %72, i32 0, i32 1
  %74 = load ptr, ptr %73, align 8, !tbaa !44
  %75 = load i32, ptr %12, align 4, !tbaa !34
  %76 = sext i32 %75 to i64
  %77 = getelementptr inbounds %struct.VIV_SB_block, ptr %74, i64 %76
  %78 = getelementptr inbounds nuw %struct.VIV_SB_block, ptr %77, i32 0, i32 1
  %79 = load i32, ptr %78, align 4, !tbaa !87
  %80 = sext i32 %79 to i64
  %81 = add nsw i64 %71, %80
  %82 = icmp slt i64 %63, %81
  br i1 %82, label %83, label %157

83:                                               ; preds = %62
  %84 = load i32, ptr %12, align 4, !tbaa !34
  %85 = load ptr, ptr %10, align 8, !tbaa !30
  %86 = getelementptr inbounds nuw %struct.VividasDemuxContext, ptr %85, i32 0, i32 5
  store i32 %84, ptr %86, align 8, !tbaa !43
  %87 = load ptr, ptr %6, align 8, !tbaa !13
  %88 = getelementptr inbounds nuw %struct.AVFormatContext, ptr %87, i32 0, i32 4
  %89 = load ptr, ptr %88, align 8, !tbaa !32
  %90 = load ptr, ptr %10, align 8, !tbaa !30
  %91 = getelementptr inbounds nuw %struct.VividasDemuxContext, ptr %90, i32 0, i32 4
  %92 = load i64, ptr %91, align 8, !tbaa !41
  %93 = load ptr, ptr %10, align 8, !tbaa !30
  %94 = getelementptr inbounds nuw %struct.VividasDemuxContext, ptr %93, i32 0, i32 1
  %95 = load ptr, ptr %94, align 8, !tbaa !44
  %96 = load i32, ptr %12, align 4, !tbaa !34
  %97 = sext i32 %96 to i64
  %98 = getelementptr inbounds %struct.VIV_SB_block, ptr %95, i64 %97
  %99 = getelementptr inbounds nuw %struct.VIV_SB_block, ptr %98, i32 0, i32 2
  %100 = load i64, ptr %99, align 8, !tbaa !54
  %101 = add nsw i64 %92, %100
  %102 = call i64 @avio_seek(ptr noundef %89, i64 noundef %101, i32 noundef 0)
  %103 = load ptr, ptr %6, align 8, !tbaa !13
  %104 = load ptr, ptr %10, align 8, !tbaa !30
  call void @load_sb_block(ptr noundef %103, ptr noundef %104, i32 noundef 0)
  %105 = load ptr, ptr %10, align 8, !tbaa !30
  %106 = getelementptr inbounds nuw %struct.VividasDemuxContext, ptr %105, i32 0, i32 2
  %107 = load i32, ptr %106, align 8, !tbaa !81
  %108 = icmp ne i32 %107, 0
  br i1 %108, label %109, label %154

109:                                              ; preds = %83
  call void @llvm.lifetime.start.p0(i64 8, ptr %14) #10
  %110 = load ptr, ptr %6, align 8, !tbaa !13
  %111 = getelementptr inbounds nuw %struct.AVFormatContext, ptr %110, i32 0, i32 7
  %112 = load ptr, ptr %111, align 8, !tbaa !61
  %113 = getelementptr inbounds ptr, ptr %112, i64 1
  %114 = load ptr, ptr %113, align 8, !tbaa !62
  %115 = getelementptr inbounds nuw %struct.AVStream, ptr %114, i32 0, i32 3
  %116 = load ptr, ptr %115, align 8, !tbaa !65
  store ptr %116, ptr %14, align 8, !tbaa !88
  %117 = load ptr, ptr %10, align 8, !tbaa !30
  %118 = getelementptr inbounds nuw %struct.VividasDemuxContext, ptr %117, i32 0, i32 12
  store i32 0, ptr %118, align 4, !tbaa !50
  %119 = load ptr, ptr %10, align 8, !tbaa !30
  %120 = getelementptr inbounds nuw %struct.VividasDemuxContext, ptr %119, i32 0, i32 11
  store i32 0, ptr %120, align 8, !tbaa !51
  %121 = load ptr, ptr %10, align 8, !tbaa !30
  %122 = getelementptr inbounds nuw %struct.VividasDemuxContext, ptr %121, i32 0, i32 1
  %123 = load ptr, ptr %122, align 8, !tbaa !44
  %124 = load i32, ptr %12, align 4, !tbaa !34
  %125 = sext i32 %124 to i64
  %126 = getelementptr inbounds %struct.VIV_SB_block, ptr %123, i64 %125
  %127 = getelementptr inbounds nuw %struct.VIV_SB_block, ptr %126, i32 0, i32 3
  %128 = load i64, ptr %127, align 8, !tbaa !82
  %129 = load ptr, ptr %14, align 8, !tbaa !88
  %130 = getelementptr inbounds nuw %struct.AVCodecParameters, ptr %129, i32 0, i32 25
  %131 = load i32, ptr %130, align 8, !tbaa !68
  %132 = call i64 @av_make_q(i32 noundef %131, i32 noundef 1)
  store i64 %132, ptr %15, align 4
  %133 = load ptr, ptr %6, align 8, !tbaa !13
  %134 = getelementptr inbounds nuw %struct.AVFormatContext, ptr %133, i32 0, i32 7
  %135 = load ptr, ptr %134, align 8, !tbaa !61
  %136 = getelementptr inbounds ptr, ptr %135, i64 0
  %137 = load ptr, ptr %136, align 8, !tbaa !62
  %138 = getelementptr inbounds nuw %struct.AVStream, ptr %137, i32 0, i32 5
  %139 = load i64, ptr %138, align 8
  %140 = call i64 @av_inv_q(i64 %139)
  store i64 %140, ptr %16, align 4
  %141 = load i64, ptr %15, align 4
  %142 = load i64, ptr %16, align 4
  %143 = call i64 @av_rescale_q(i64 noundef %128, i64 %141, i64 %142) #11
  %144 = load ptr, ptr %10, align 8, !tbaa !30
  %145 = getelementptr inbounds nuw %struct.VividasDemuxContext, ptr %144, i32 0, i32 13
  store i64 %143, ptr %145, align 8, !tbaa !64
  %146 = load ptr, ptr %14, align 8, !tbaa !88
  %147 = getelementptr inbounds nuw %struct.AVCodecParameters, ptr %146, i32 0, i32 25
  %148 = load i32, ptr %147, align 8, !tbaa !68
  %149 = sext i32 %148 to i64
  %150 = load ptr, ptr %10, align 8, !tbaa !30
  %151 = getelementptr inbounds nuw %struct.VividasDemuxContext, ptr %150, i32 0, i32 13
  %152 = load i64, ptr %151, align 8, !tbaa !64
  %153 = add nsw i64 %152, %149
  store i64 %153, ptr %151, align 8, !tbaa !64
  call void @llvm.lifetime.end.p0(i64 8, ptr %14) #10
  br label %154

154:                                              ; preds = %109, %83
  %155 = load ptr, ptr %10, align 8, !tbaa !30
  %156 = getelementptr inbounds nuw %struct.VividasDemuxContext, ptr %155, i32 0, i32 6
  store i32 0, ptr %156, align 4, !tbaa !75
  store i32 1, ptr %5, align 4
  store i32 1, ptr %13, align 4
  br label %161

157:                                              ; preds = %62, %51
  br label %158

158:                                              ; preds = %157
  %159 = load i32, ptr %12, align 4, !tbaa !34
  %160 = add nsw i32 %159, 1
  store i32 %160, ptr %12, align 4, !tbaa !34
  br label %44, !llvm.loop !89

161:                                              ; preds = %154, %50
  call void @llvm.lifetime.end.p0(i64 4, ptr %12) #10
  %162 = load i32, ptr %13, align 4
  switch i32 %162, label %164 [
    i32 2, label %163
  ]

163:                                              ; preds = %161
  store i32 0, ptr %5, align 4
  store i32 1, ptr %13, align 4
  br label %164

164:                                              ; preds = %163, %161
  call void @llvm.lifetime.end.p0(i64 8, ptr %11) #10
  call void @llvm.lifetime.end.p0(i64 8, ptr %10) #10
  %165 = load i32, ptr %5, align 4
  ret i32 %165
}