; Function Attrs: nounwind uwtable
define internal range(i32 0, 2) i32 @viv_read_seek(ptr noundef readonly captures(none) %0, i32 noundef %1, i64 noundef %2, i32 %3) #1 {
  %5 = getelementptr inbounds nuw i8, ptr %0, i64 24
  %6 = load ptr, ptr %5, align 8, !tbaa !11
  %7 = icmp eq i32 %1, 0
  br i1 %7, label %20, label %8

8:                                                ; preds = %4
  %9 = getelementptr inbounds nuw i8, ptr %0, i64 48
  %10 = load ptr, ptr %9, align 8, !tbaa !79
  %11 = load ptr, ptr %10, align 8, !tbaa !80
  %12 = getelementptr inbounds nuw i8, ptr %11, i64 32
  %13 = sext i32 %1 to i64
  %14 = getelementptr inbounds ptr, ptr %10, i64 %13
  %15 = load ptr, ptr %14, align 8, !tbaa !80
  %16 = getelementptr inbounds nuw i8, ptr %15, i64 32
  %17 = load i64, ptr %12, align 8
  %18 = load i64, ptr %16, align 8
  %19 = tail call i64 @av_rescale_q(i64 noundef %2, i64 %17, i64 %18) #11
  br label %20

20:                                               ; preds = %4, %8
  %.040 = phi i64 [ %19, %8 ], [ %2, %4 ]
  %21 = load i32, ptr %6, align 8, !tbaa !62
  %.not4551 = icmp sgt i32 %21, 0
  br i1 %.not4551, label %.lr.ph, label %.loopexit

.lr.ph:                                           ; preds = %20
  %22 = getelementptr inbounds nuw i8, ptr %6, i64 8
  %23 = load ptr, ptr %22, align 8, !tbaa !61
  %wide.trip.count = zext nneg i32 %21 to i64
  br label %24

24:                                               ; preds = %.lr.ph, %70
  %indvars.iv = phi i64 [ 0, %.lr.ph ], [ %indvars.iv.next, %70 ]
  %25 = getelementptr inbounds nuw %struct.VIV_SB_block, ptr %23, i64 %indvars.iv
  %26 = getelementptr inbounds nuw i8, ptr %25, i64 16
  %27 = load i64, ptr %26, align 8, !tbaa !65
  %.not = icmp slt i64 %.040, %27
  br i1 %.not, label %70, label %28

28:                                               ; preds = %24
  %29 = getelementptr inbounds nuw i8, ptr %25, i64 4
  %30 = load i32, ptr %29, align 4, !tbaa !67
  %31 = sext i32 %30 to i64
  %32 = add nsw i64 %27, %31
  %33 = icmp slt i64 %.040, %32
  br i1 %33, label %34, label %70

34:                                               ; preds = %28
  %35 = trunc nuw nsw i64 %indvars.iv to i32
  %36 = getelementptr inbounds nuw i8, ptr %6, i64 32
  store i32 %35, ptr %36, align 8, !tbaa !71
  %37 = getelementptr inbounds nuw i8, ptr %0, i64 32
  %38 = load ptr, ptr %37, align 8, !tbaa !26
  %39 = getelementptr inbounds nuw i8, ptr %6, i64 24
  %40 = load i64, ptr %39, align 8, !tbaa !70
  %41 = getelementptr inbounds nuw %struct.VIV_SB_block, ptr %23, i64 %indvars.iv, i32 2
  %42 = load i64, ptr %41, align 8, !tbaa !63
  %43 = add nsw i64 %42, %40
  %44 = tail call i64 @avio_seek(ptr noundef %38, i64 noundef %43, i32 noundef 0) #9
  tail call fastcc void @load_sb_block(ptr noundef %0, ptr noundef nonnull %6, i32 noundef 0)
  %45 = getelementptr inbounds nuw i8, ptr %6, i64 16
  %46 = load i32, ptr %45, align 8, !tbaa !52
  %.not44 = icmp eq i32 %46, 0
  br i1 %.not44, label %68, label %47

47:                                               ; preds = %34
  %48 = getelementptr inbounds nuw i8, ptr %0, i64 48
  %49 = load ptr, ptr %48, align 8, !tbaa !79
  %50 = getelementptr inbounds nuw i8, ptr %49, i64 8
  %51 = load ptr, ptr %50, align 8, !tbaa !80
  %52 = getelementptr inbounds nuw i8, ptr %51, i64 16
  %53 = load ptr, ptr %52, align 8, !tbaa !44
  %54 = getelementptr inbounds nuw i8, ptr %6, i64 76
  store i32 0, ptr %54, align 4, !tbaa !73
  %55 = getelementptr inbounds nuw i8, ptr %6, i64 72
  store i32 0, ptr %55, align 8, !tbaa !74
  %56 = load ptr, ptr %22, align 8, !tbaa !61
  %57 = getelementptr inbounds nuw %struct.VIV_SB_block, ptr %56, i64 %indvars.iv, i32 3
  %58 = load i64, ptr %57, align 8, !tbaa !65
  %59 = getelementptr inbounds nuw i8, ptr %53, i64 152
  %60 = load i32, ptr %59, align 8, !tbaa !54
  %.sroa.0.0.insert.ext.i = zext i32 %60 to i64
  %.sroa.0.0.insert.insert.i = or disjoint i64 %.sroa.0.0.insert.ext.i, 4294967296
  %61 = load ptr, ptr %49, align 8, !tbaa !80
  %62 = getelementptr inbounds nuw i8, ptr %61, i64 32
  %63 = load i64, ptr %62, align 8
  %.sroa.01.0.insert.insert.i = tail call i64 @llvm.fshl.i64(i64 %63, i64 %63, i64 32)
  %64 = tail call i64 @av_rescale_q(i64 noundef %58, i64 %.sroa.0.0.insert.insert.i, i64 %.sroa.01.0.insert.insert.i) #11
  %65 = getelementptr inbounds nuw i8, ptr %6, i64 80
  %66 = sext i32 %60 to i64
  %67 = add nsw i64 %64, %66
  store i64 %67, ptr %65, align 8, !tbaa !82
  br label %68

68:                                               ; preds = %47, %34
  %69 = getelementptr inbounds nuw i8, ptr %6, i64 36
  store i32 0, ptr %69, align 4, !tbaa !86
  br label %.loopexit

70:                                               ; preds = %24, %28
  %indvars.iv.next = add nuw nsw i64 %indvars.iv, 1
  %exitcond.not = icmp eq i64 %indvars.iv.next, %wide.trip.count
  br i1 %exitcond.not, label %.loopexit, label %24, !llvm.loop !93

.loopexit:                                        ; preds = %70, %20, %68
  %.not4547 = phi i32 [ 1, %68 ], [ 0, %20 ], [ 0, %70 ]
  ret i32 %.not4547
}